; Function Attrs: mustprogress uwtable
define void @_ZN6icu_7516EthiopicCalendar19handleComputeFieldsEiR10UErrorCode(ptr noundef nonnull align 8 dereferenceable(618) %this, i32 noundef %julianDay, ptr nocapture nonnull readnone align 4 %0) unnamed_addr #1 align 2 {
entry:
  %eyear = alloca i32, align 4
  %month = alloca i32, align 4
  %day = alloca i32, align 4
  %vtable = load ptr, ptr %this, align 8
  %vfn = getelementptr inbounds i8, ptr %vtable, i64 440
  %1 = load ptr, ptr %vfn, align 8
  %call = tail call noundef i32 %1(ptr noundef nonnull align 8 dereferenceable(618) %this)
  call void @_ZN6icu_7510CECalendar6jdToCEEiiRiS1_S1_(i32 noundef %julianDay, i32 noundef %call, ptr noundef nonnull align 4 dereferenceable(4) %eyear, ptr noundef nonnull align 4 dereferenceable(4) %month, ptr noundef nonnull align 4 dereferenceable(4) %day)
  %2 = load i32, ptr %eyear, align 4
  %fFields.i = getelementptr inbounds i8, ptr %this, i64 12
  %arrayidx.i = getelementptr inbounds i8, ptr %this, i64 88
  store i32 %2, ptr %arrayidx.i, align 8
  %fStamp.i = getelementptr inbounds i8, ptr %this, i64 132
  %arrayidx3.i = getelementptr inbounds i8, ptr %this, i64 208
  store i32 1, ptr %arrayidx3.i, align 8
  %fIsSet.i = getelementptr inbounds i8, ptr %this, i64 108
  %arrayidx5.i = getelementptr inbounds i8, ptr %this, i64 127
  store i8 1, ptr %arrayidx5.i, align 1
  %cmp = icmp sgt i32 %2, 0
  %cond = zext i1 %cmp to i32
  store i32 %cond, ptr %fFields.i, align 4
  store i32 1, ptr %fStamp.i, align 4
  store i8 1, ptr %fIsSet.i, align 4
  %add = add nsw i32 %2, 5500
  %cond3 = select i1 %cmp, i32 %2, i32 %add
  %arrayidx.i5 = getelementptr inbounds i8, ptr %this, i64 16
  store i32 %cond3, ptr %arrayidx.i5, align 8
  %arrayidx3.i7 = getelementptr inbounds i8, ptr %this, i64 136
  store i32 1, ptr %arrayidx3.i7, align 8
  %arrayidx5.i9 = getelementptr inbounds i8, ptr %this, i64 109
  store i8 1, ptr %arrayidx5.i9, align 1
  %3 = load i32, ptr %month, align 4
  %arrayidx.i11 = getelementptr inbounds i8, ptr %this, i64 20
  store i32 %3, ptr %arrayidx.i11, align 4
  %arrayidx3.i13 = getelementptr inbounds i8, ptr %this, i64 140
  store i32 1, ptr %arrayidx3.i13, align 4
  %arrayidx5.i15 = getelementptr inbounds i8, ptr %this, i64 110
  store i8 1, ptr %arrayidx5.i15, align 2
  %arrayidx.i17 = getelementptr inbounds i8, ptr %this, i64 104
  store i32 %3, ptr %arrayidx.i17, align 8
  %arrayidx3.i19 = getelementptr inbounds i8, ptr %this, i64 224
  store i32 1, ptr %arrayidx3.i19, align 8
  %arrayidx5.i21 = getelementptr inbounds i8, ptr %this, i64 131
  store i8 1, ptr %arrayidx5.i21, align 1
  %4 = load i32, ptr %day, align 4
  %arrayidx.i23 = getelementptr inbounds i8, ptr %this, i64 32
  store i32 %4, ptr %arrayidx.i23, align 8
  %arrayidx3.i25 = getelementptr inbounds i8, ptr %this, i64 152
  store i32 1, ptr %arrayidx3.i25, align 8
  %arrayidx5.i27 = getelementptr inbounds i8, ptr %this, i64 113
  store i8 1, ptr %arrayidx5.i27, align 1
  %mul = mul nsw i32 %3, 30
  %add4 = add nsw i32 %4, %mul
  %arrayidx.i29 = getelementptr inbounds i8, ptr %this, i64 36
  store i32 %add4, ptr %arrayidx.i29, align 4
  %arrayidx3.i31 = getelementptr inbounds i8, ptr %this, i64 156
  store i32 1, ptr %arrayidx3.i31, align 4
  %arrayidx5.i33 = getelementptr inbounds i8, ptr %this, i64 114
  store i8 1, ptr %arrayidx5.i33, align 2
  ret void
}